Certificate:
    Data:
        Version: 3 (0x2)
        Serial Number: 1 (0x1)
        Signature Algorithm: sha256WithRSAEncryption
        Issuer: CN=devcert
        Validity
            Not Before: Apr 28 09:36:59 2020 GMT
            Not After : Aug  1 09:36:59 2022 GMT
        Subject: CN=localhost
        Subject Public Key Info:
            Public Key Algorithm: rsaEncryption
                RSA Public-Key: (2048 bit)
                Modulus:
                    00:d5:88:bd:93:83:91:4a:76:25:57:ed:c8:ec:5b:
                    56:74:37:2b:dc:45:c7:bb:f7:0b:6e:36:d4:43:e9:
                    67:ef:70:41:5a:a8:7a:85:68:d2:62:b1:77:3c:84:
                    9a:36:5f:b1:ac:1a:b7:5c:c6:71:eb:6a:6b:b9:49:
                    f5:ad:a9:17:9f:50:a4:6a:89:25:24:a2:a8:5b:28:
                    a2:85:d7:ab:85:b4:4f:03:17:c7:d3:12:5f:89:5d:
                    f2:e0:e8:d8:bf:5e:94:3b:39:6e:b3:90:d1:36:90:
                    6c:60:db:7f:dd:01:cf:75:a9:22:61:14:a5:0b:85:
                    f6:84:1c:60:35:72:4c:66:f3:10:ed:9c:4f:67:a6:
                    94:fc:18:60:3f:bf:d0:de:ad:32:6d:c6:81:fb:16:
                    f5:21:02:2b:3e:e0:30:1a:60:dd:f0:54:13:13:a4:
                    c5:06:36:98:7c:f2:e4:8a:70:f1:0b:27:f2:8d:60:
                    60:79:f6:52:12:72:3a:66:f7:a1:f2:e4:a0:31:d1:
                    12:57:80:76:9f:06:87:1b:ef:bc:e7:c7:59:bb:7b:
                    5b:76:45:9f:47:63:da:ad:65:b0:0a:4b:12:af:df:
                    fc:95:a5:0a:d4:d5:28:27:ae:0f:cd:d3:0f:93:e5:
                    15:64:cf:cf:c9:10:dd:68:16:55:ed:69:b6:a8:2d:
                    cc:71
                Exponent: 65537 (0x10001)
        X509v3 extensions:
            X509v3 Basic Constraints: critical
                CA:FALSE
            X509v3 Subject Key Identifier: 
                4A:8B:F7:45:3B:0F:78:41:92:0F:DD:ED:DC:DD:DE:0A:9C:EA:2E:FC
            X509v3 Authority Key Identifier: 
                keyid:CD:8B:72:0B:DF:1F:E6:42:52:B3:4E:29:BD:3E:42:EA:52:CA:A1:C0
                DirName:/CN=devcert
                serial:69:85:19:66:C8:03:FA:B1:0D:07:01:3B:4A:AF:C7:6F:F4:54:51:B1

            X509v3 Key Usage: critical
                Digital Signature, Key Encipherment
            X509v3 Extended Key Usage: 
                TLS Web Server Authentication
            X509v3 Subject Alternative Name: 
                DNS:localhost, DNS:*.localhost
    Signature Algorithm: sha256WithRSAEncryption
         27:e4:01:fd:7a:bc:79:4a:a8:37:86:a6:ec:8e:21:5b:70:7e:
         62:ba:09:b1:78:65:5b:5a:86:54:bb:71:f1:24:c6:13:b3:2e:
         34:53:5c:c0:8e:24:0b:15:8a:53:e8:06:6d:f5:4a:2c:18:26:
         7f:de:4a:fc:d3:f4:9b:85:ab:62:fc:da:77:1a:72:56:37:ac:
         35:8d:46:30:b7:58:ca:6e:f6:25:48:01:59:ad:6c:97:09:57:
         1e:c8:19:8a:a9:da:d6:ce:0b:d4:bb:b2:9f:9a:43:6b:62:04:
         a3:08:0b:c7:0b:25:62:45:d0:e8:84:e4:70:3e:75:ce:2a:b2:
         5f:c0:e1:23:3d:d7:75:2e:2f:55:dd:17:d6:77:a4:63:03:2f:
         ed:22:eb:bf:ef:7d:ad:00:bd:dd:9f:2d:05:d4:f9:92:49:1a:
         2b:69:d5:3e:f6:8f:7f:75:65:e4:5b:27:b5:c0:c1:00:8c:77:
         30:56:0e:d9:ef:36:4b:1f:d7:32:9a:fa:4a:0c:a9:52:b8:55:
         7e:fa:a4:b9:4e:c3:f9:82:d7:04:56:46:0a:24:bd:7e:b4:01:
         de:cd:b4:26:ae:ec:39:39:61:64:e9:10:3a:5c:9f:9f:34:1e:
         df:b2:a6:38:fe:b6:3b:a5:6d:64:5e:44:5f:b0:12:60:1f:3d:
         1a:41:6a:4a
-----BEGIN CERTIFICATE-----
MIIDaTCCAlGgAwIBAgIBATANBgkqhkiG9w0BAQsFADASMRAwDgYDVQQDDAdkZXZj
ZXJ0MB4XDTIwMDQyODA5MzY1OVoXDTIyMDgwMTA5MzY1OVowFDESMBAGA1UEAwwJ
bG9jYWxob3N0MIIBIjANBgkqhkiG9w0BAQEFAAOCAQ8AMIIBCgKCAQEA1Yi9k4OR
SnYlV+3I7FtWdDcr3EXHu/cLbjbUQ+ln73BBWqh6hWjSYrF3PISaNl+xrBq3XMZx
62pruUn1rakXn1CkaoklJKKoWyiihderhbRPAxfH0xJfiV3y4OjYv16UOzlus5DR
NpBsYNt/3QHPdakiYRSlC4X2hBxgNXJMZvMQ7ZxPZ6aU/BhgP7/Q3q0ybcaB+xb1
IQIrPuAwGmDd8FQTE6TFBjaYfPLkinDxCyfyjWBgefZSEnI6Zveh8uSgMdESV4B2
nwaHG++858dZu3tbdkWfR2ParWWwCksSr9/8laUK1NUoJ64PzdMPk+UVZM/PyRDd
aBZV7Wm2qC3McQIDAQABo4HHMIHEMAwGA1UdEwEB/wQCMAAwHQYDVR0OBBYEFEqL
90U7D3hBkg/d7dzd3gqc6i78ME0GA1UdIwRGMESAFM2LcgvfH+ZCUrNOKb0+QupS
yqHAoRakFDASMRAwDgYDVQQDDAdkZXZjZXJ0ghRphRlmyAP6sQ0HATtKr8dv9FRR
sTAOBgNVHQ8BAf8EBAMCBaAwEwYDVR0lBAwwCgYIKwYBBQUHAwEwIQYDVR0RBBow
GIIJbG9jYWxob3N0ggsqLmxvY2FsaG9zdDANBgkqhkiG9w0BAQsFAAOCAQEAJ+QB
/Xq8eUqoN4am7I4hW3B+YroJsXhlW1qGVLtx8STGE7MuNFNcwI4kCxWKU+gGbfVK
LBgmf95K/NP0m4WrYvzadxpyVjesNY1GMLdYym72JUgBWa1slwlXHsgZiqna1s4L
1Luyn5pDa2IEowgLxwslYkXQ6ITkcD51ziqyX8DhIz3XdS4vVd0X1nekYwMv7SLr
v+99rQC93Z8tBdT5kkkaK2nVPvaPf3Vl5FsntcDBAIx3MFYO2e82Sx/XMpr6Sgyp
UrhVfvqkuU7D+YLXBFZGCiS9frQB3s20Jq7sOTlhZOkQOlyfnzQe37KmOP62O6Vt
ZF5EX7ASYB89GkFqSg==
-----END CERTIFICATE-----
